Certificate:
    Data:
        Version: 3 (0x2)
        Serial Number:
            75:24:27:39:81:7e:d7:16:fa:8c:6f:96:95:c8:30:4c:59:14:22:69
        Signature Algorithm: sha256WithRSAEncryption
        Issuer: CN=Minha CA Interna
        Validity
            Not Before: Apr 10 13:13:45 2025 GMT
            Not After : Apr  8 13:13:45 2035 GMT
        Subject: CN=exclusiva.intranet
        Subject Public Key Info:
            Public Key Algorithm: rsaEncryption
                Public-Key: (2048 bit)
                Modulus:
                    00:9b:1b:57:d1:08:b3:b8:b2:99:d9:ef:90:d6:02:
                    a4:89:90:5c:71:3a:78:0a:72:55:3f:fb:ff:8a:38:
                    c3:17:bd:6e:ad:4d:d2:44:78:6b:a1:57:b1:67:72:
                    11:55:c4:2c:20:70:77:7b:ef:33:51:bc:1a:42:f1:
                    e4:dd:53:e9:b8:3d:78:46:5a:56:1f:86:fe:92:eb:
                    0e:9b:20:25:87:98:2f:d1:a7:e2:80:0f:bb:e6:28:
                    77:37:b3:b1:b8:c7:2b:ba:3e:b6:c0:4a:53:09:4e:
                    b0:b0:02:41:b2:d0:14:8c:23:36:2c:8e:5a:43:96:
                    7b:d6:fd:a0:c6:54:18:9b:15:c1:a8:dd:05:0b:1d:
                    c8:af:a2:77:62:6d:32:0d:67:f0:e5:ab:b0:6f:82:
                    9c:e2:73:de:5f:02:9e:bf:16:f9:63:e7:1d:d9:99:
                    23:28:9f:5b:86:e1:dc:8f:5e:64:a9:e7:d9:2b:54:
                    6d:c3:c4:be:26:38:50:54:8c:13:a8:cd:a6:1e:7a:
                    9d:eb:e3:3e:92:ac:aa:0d:ed:09:56:f9:7b:58:59:
                    cb:45:d0:d8:3c:7c:20:ee:39:21:2a:b3:54:b5:18:
                    d8:88:9f:48:c7:4e:1a:bc:8e:83:68:3b:c7:c4:e5:
                    a6:77:e3:0c:2f:e3:af:f3:c4:5c:aa:72:82:d1:bc:
                    a3:4f
                Exponent: 65537 (0x10001)
        X509v3 extensions:
            X509v3 Authority Key Identifier: 
                BA:22:30:83:4A:89:B3:77:DF:D2:45:DA:AD:AD:4D:58:A1:F5:74:D8
            X509v3 Basic Constraints: 
                CA:FALSE
            X509v3 Key Usage: 
                Digital Signature, Key Encipherment
            X509v3 Extended Key Usage: 
                TLS Web Server Authentication
            X509v3 Subject Alternative Name: 
                DNS:exclusiva.intranet
            X509v3 Subject Key Identifier: 
                69:CC:7D:CF:8B:8F:9B:73:76:A3:AD:9C:94:CA:B6:B1:91:3C:DA:E5
    Signature Algorithm: sha256WithRSAEncryption
    Signature Value:
        73:49:a2:ea:94:79:5d:0f:af:12:38:3b:ad:db:8d:bf:e9:1a:
        87:35:26:60:75:58:ba:a9:6e:ab:b3:04:e9:ec:25:48:e1:f2:
        12:f8:bc:b2:2c:e3:da:b5:c6:46:5d:2d:3e:85:44:1e:99:76:
        d7:be:ad:cf:67:52:27:4c:de:d7:d6:57:b2:08:7f:e3:1e:ac:
        b2:73:4c:91:69:45:32:df:44:8e:6c:c3:91:08:21:5f:cd:ad:
        c8:78:a6:d2:b9:1c:f7:46:2a:ff:f0:12:92:cf:ad:c5:66:57:
        d2:db:f9:bb:32:af:12:e6:19:ab:62:fd:c3:b2:e7:3a:23:a3:
        3d:64:46:43:13:f4:b4:b8:5a:66:1f:11:61:0b:14:53:3f:1a:
        ed:d3:a0:47:65:1b:bb:a8:36:21:b6:5c:f7:02:23:62:62:bb:
        82:89:34:a5:f3:24:66:1a:0a:e8:41:73:92:86:05:d4:9d:58:
        af:17:21:7f:7a:3e:25:d6:8f:0f:c9:ba:79:c3:21:2f:f2:72:
        fa:79:ee:2f:81:74:84:e1:ac:f6:92:0e:cb:d4:aa:c6:d2:05:
        07:8b:4b:36:18:ad:f2:54:4f:26:c9:6a:06:8b:1b:8b:9d:2e:
        1a:48:35:31:58:10:6b:7d:60:32:7a:f9:ee:ba:7b:c5:fe:da:
        34:39:fb:ca:b3:a0:4b:fa:87:65:06:bc:cd:8f:ce:1b:aa:53:
        3e:f2:00:0c:9d:87:71:74:3a:05:ca:e9:17:33:05:46:d5:0c:
        c4:d4:f7:a5:d5:de:03:e9:47:a7:f1:15:77:99:9f:ea:d1:66:
        e3:4d:65:d1:37:9c:ba:71:d5:17:ec:e8:b6:07:87:67:72:56:
        8d:67:7b:21:dd:4c:58:53:cd:6b:a3:c4:aa:59:7d:81:3c:44:
        11:83:0a:07:94:13:63:92:8e:5d:8c:f5:77:04:8d:bb:ce:93:
        93:a1:f8:da:21:ea:ed:11:41:82:53:a1:16:cf:41:3e:e6:da:
        b7:63:90:e3:84:08:dc:0b:2a:f4:62:5f:a1:f9:20:50:09:f4:
        b9:50:21:ae:d8:e3:59:ff:fd:3a:ed:ae:11:0d:67:e1:52:7b:
        07:8e:01:70:74:f7:01:2b:b3:f6:70:03:cc:74:96:83:1c:90:
        87:d6:39:52:c4:c8:a4:73:0b:d0:88:ad:d2:d3:49:4a:6c:a1:
        89:2c:45:a2:a5:d3:a3:6c:53:a4:92:00:e0:8e:0f:58:1b:d6:
        23:24:a9:eb:e7:56:5e:ca:be:0c:b3:88:25:9d:54:25:16:a8:
        1c:df:64:cf:bb:f8:44:94:5d:cc:c8:44:79:57:77:21:61:29:
        28:1d:7b:a4:ce:f4:b8:96
-----BEGIN CERTIFICATE-----
MIIEVjCCAj6gAwIBAgIUdSQnOYF+1xb6jG+WlcgwTFkUImkwDQYJKoZIhvcNAQEL
BQAwGzEZMBcGA1UEAwwQTWluaGEgQ0EgSW50ZXJuYTAeFw0yNTA0MTAxMzEzNDVa
Fw0zNTA0MDgxMzEzNDVaMB0xGzAZBgNVBAMMEmV4Y2x1c2l2YS5pbnRyYW5ldDCC
ASIwDQYJKoZIhvcNAQEBBQADggEPADCCAQoCggEBAJsbV9EIs7iymdnvkNYCpImQ
XHE6eApyVT/7/4o4wxe9bq1N0kR4a6FXsWdyEVXELCBwd3vvM1G8GkLx5N1T6bg9
eEZaVh+G/pLrDpsgJYeYL9Gn4oAPu+YodzezsbjHK7o+tsBKUwlOsLACQbLQFIwj
NiyOWkOWe9b9oMZUGJsVwajdBQsdyK+id2JtMg1n8OWrsG+CnOJz3l8Cnr8W+WPn
HdmZIyifW4bh3I9eZKnn2StUbcPEviY4UFSME6jNph56nevjPpKsqg3tCVb5e1hZ
y0XQ2Dx8IO45ISqzVLUY2IifSMdOGryOg2g7x8TlpnfjDC/jr/PEXKpygtG8o08C
AwEAAaOBjzCBjDAfBgNVHSMEGDAWgBS6IjCDSomzd9/SRdqtrU1YofV02DAJBgNV
HRMEAjAAMAsGA1UdDwQEAwIFoDATBgNVHSUEDDAKBggrBgEFBQcDATAdBgNVHREE
FjAUghJleGNsdXNpdmEuaW50cmFuZXQwHQYDVR0OBBYEFGnMfc+Lj5tzdqOtnJTK
trGRPNrlMA0GCSqGSIb3DQEBCwUAA4ICAQBzSaLqlHldD68SODut242/6RqHNSZg
dVi6qW6rswTp7CVI4fIS+LyyLOPatcZGXS0+hUQemXbXvq3PZ1InTN7X1leyCH/j
Hqyyc0yRaUUy30SObMORCCFfza3IeKbSuRz3Rir/8BKSz63FZlfS2/m7Mq8S5hmr
Yv3Dsuc6I6M9ZEZDE/S0uFpmHxFhCxRTPxrt06BHZRu7qDYhtlz3AiNiYruCiTSl
8yRmGgroQXOShgXUnVivFyF/ej4l1o8Pybp5wyEv8nL6ee4vgXSE4az2kg7L1KrG
0gUHi0s2GK3yVE8myWoGixuLnS4aSDUxWBBrfWAyevnuunvF/to0OfvKs6BL+odl
BrzNj84bqlM+8gAMnYdxdDoFyukXMwVG1QzE1Pel1d4D6Uen8RV3mZ/q0WbjTWXR
N5y6cdUX7Oi2B4dnclaNZ3sh3UxYU81ro8SqWX2BPEQRgwoHlBNjko5djPV3BI27
zpOTofjaIertEUGCU6EWz0E+5tq3Y5DjhAjcCyr0Yl+h+SBQCfS5UCGu2ONZ//06
7a4RDWfhUnsHjgFwdPcBK7P2cAPMdJaDHJCH1jlSxMikcwvQiK3S00lKbKGJLEWi
pdOjbFOkkgDgjg9YG9YjJKnr51Zeyr4Ms4glnVQlFqgc32TPu/hElF3MyER5V3ch
YSkoHXukzvS4lg==
-----END CERTIFICATE-----
